target datalayout = "e-m:e-p270:32:32-p271:32:32-p272:64:64-i64:64-i128:128-f80:128-n8:16:32:64-S128"
target triple = "x86_64-pc-linux-gnu"

%struct.ewah_bitmap = type { ptr, i64, i64, i64, ptr }

@.str = private unnamed_addr constant [27 x i8] c"size_t overflow: %lu * %lu\00", align 1

; Function Attrs: inlinehint nounwind uwtable
define internal i64 @st_mult(i64 noundef %0, i64 noundef %1) #2 {
  %3 = alloca i64, align 8
  %4 = alloca i64, align 8
  store i64 %0, ptr %3, align 8, !tbaa !11
  store i64 %1, ptr %4, align 8, !tbaa !11
  %5 = load i64, ptr %3, align 8, !tbaa !11
  %6 = icmp ne i64 %5, 0
  br i1 %6, label %7, label %15

7:                                                ; preds = %2
  %8 = load i64, ptr %4, align 8, !tbaa !11
  %9 = load i64, ptr %3, align 8, !tbaa !11
  %10 = udiv i64 -1, %9
  %11 = icmp ugt i64 %8, %10
  br i1 %11, label %12, label %15

12:                                               ; preds = %7
  %13 = load i64, ptr %3, align 8, !tbaa !11
  %14 = load i64, ptr %4, align 8, !tbaa !11
  call void (ptr, ...) @die(ptr noundef @.str, i64 noundef %13, i64 noundef %14) #8
  unreachable

15:                                               ; preds = %7, %2
  %16 = load i64, ptr %3, align 8, !tbaa !11
  %17 = load i64, ptr %4, align 8, !tbaa !11
  %18 = mul i64 %16, %17
  ret i64 %18
}

; Function Attrs: inlinehint nounwind uwtable
define internal void @buffer_grow(ptr noundef %0, i64 noundef %1) #2 {
  %3 = alloca ptr, align 8
  %4 = alloca i64, align 8
  %5 = alloca i64, align 8
  store ptr %0, ptr %3, align 8, !tbaa !4
  store i64 %1, ptr %4, align 8, !tbaa !11
  call void @llvm.lifetime.start.p0(i64 8, ptr %5) #7
  %6 = load ptr, ptr %3, align 8, !tbaa !4
  %7 = getelementptr inbounds nuw %struct.ewah_bitmap, ptr %6, i32 0, i32 4
  %8 = load ptr, ptr %7, align 8, !tbaa !16
  %9 = load ptr, ptr %3, align 8, !tbaa !4
  %10 = getelementptr inbounds nuw %struct.ewah_bitmap, ptr %9, i32 0, i32 0
  %11 = load ptr, ptr %10, align 8, !tbaa !21
  %12 = ptrtoint ptr %8 to i64
  %13 = ptrtoint ptr %11 to i64
  %14 = sub i64 %12, %13
  store i64 %14, ptr %5, align 8, !tbaa !11
  br label %15

15:                                               ; preds = %2
  %16 = load i64, ptr %4, align 8, !tbaa !11
  %17 = load ptr, ptr %3, align 8, !tbaa !4
  %18 = getelementptr inbounds nuw %struct.ewah_bitmap, ptr %17, i32 0, i32 2
  %19 = load i64, ptr %18, align 8, !tbaa !23
  %20 = icmp ugt i64 %16, %19
  br i1 %20, label %21, label %54

21:                                               ; preds = %15
  %22 = load ptr, ptr %3, align 8, !tbaa !4
  %23 = getelementptr inbounds nuw %struct.ewah_bitmap, ptr %22, i32 0, i32 2
  %24 = load i64, ptr %23, align 8, !tbaa !23
  %25 = add i64 %24, 16
  %26 = mul i64 %25, 3
  %27 = udiv i64 %26, 2
  %28 = load i64, ptr %4, align 8, !tbaa !11
  %29 = icmp ult i64 %27, %28
  br i1 %29, label %30, label %34

30:                                               ; preds = %21
  %31 = load i64, ptr %4, align 8, !tbaa !11
  %32 = load ptr, ptr %3, align 8, !tbaa !4
  %33 = getelementptr inbounds nuw %struct.ewah_bitmap, ptr %32, i32 0, i32 2
  store i64 %31, ptr %33, align 8, !tbaa !23
  br label %43

34:                                               ; preds = %21
  %35 = load ptr, ptr %3, align 8, !tbaa !4
  %36 = getelementptr inbounds nuw %struct.ewah_bitmap, ptr %35, i32 0, i32 2
  %37 = load i64, ptr %36, align 8, !tbaa !23
  %38 = add i64 %37, 16
  %39 = mul i64 %38, 3
  %40 = udiv i64 %39, 2
  %41 = load ptr, ptr %3, align 8, !tbaa !4
  %42 = getelementptr inbounds nuw %struct.ewah_bitmap, ptr %41, i32 0, i32 2
  store i64 %40, ptr %42, align 8, !tbaa !23
  br label %43

43:                                               ; preds = %34, %30
  %44 = load ptr, ptr %3, align 8, !tbaa !4
  %45 = getelementptr inbounds nuw %struct.ewah_bitmap, ptr %44, i32 0, i32 0
  %46 = load ptr, ptr %45, align 8, !tbaa !21
  %47 = load ptr, ptr %3, align 8, !tbaa !4
  %48 = getelementptr inbounds nuw %struct.ewah_bitmap, ptr %47, i32 0, i32 2
  %49 = load i64, ptr %48, align 8, !tbaa !23
  %50 = call i64 @st_mult(i64 noundef 8, i64 noundef %49)
  %51 = call ptr @xrealloc(ptr noundef %46, i64 noundef %50)
  %52 = load ptr, ptr %3, align 8, !tbaa !4
  %53 = getelementptr inbounds nuw %struct.ewah_bitmap, ptr %52, i32 0, i32 0
  store ptr %51, ptr %53, align 8, !tbaa !21
  br label %54

54:                                               ; preds = %43, %15
  br label %55

55:                                               ; preds = %54
  br label %56

56:                                               ; preds = %55
  %57 = load ptr, ptr %3, align 8, !tbaa !4
  %58 = getelementptr inbounds nuw %struct.ewah_bitmap, ptr %57, i32 0, i32 0
  %59 = load ptr, ptr %58, align 8, !tbaa !21
  %60 = load i64, ptr %5, align 8, !tbaa !11
  %61 = udiv i64 %60, 8
  %62 = getelementptr inbounds nuw i64, ptr %59, i64 %61
  %63 = load ptr, ptr %3, align 8, !tbaa !4
  %64 = getelementptr inbounds nuw %struct.ewah_bitmap, ptr %63, i32 0, i32 4
  store ptr %62, ptr %64, align 8, !tbaa !16
  call void @llvm.lifetime.end.p0(i64 8, ptr %5) #7
  ret void
}

; Function Attrs: inlinehint nounwind uwtable
define internal void @buffer_push(ptr noundef %0, i64 noundef %1) #2 {
  %3 = alloca ptr, align 8
  %4 = alloca i64, align 8
  store ptr %0, ptr %3, align 8, !tbaa !4
  store i64 %1, ptr %4, align 8, !tbaa !11
  %5 = load ptr, ptr %3, align 8, !tbaa !4
  %6 = load ptr, ptr %3, align 8, !tbaa !4
  %7 = getelementptr inbounds nuw %struct.ewah_bitmap, ptr %6, i32 0, i32 1
  %8 = load i64, ptr %7, align 8, !tbaa !20
  %9 = add i64 %8, 1
  call void @buffer_grow(ptr noundef %5, i64 noundef %9)
  %10 = load i64, ptr %4, align 8, !tbaa !11
  %11 = load ptr, ptr %3, align 8, !tbaa !4
  %12 = getelementptr inbounds nuw %struct.ewah_bitmap, ptr %11, i32 0, i32 0
  %13 = load ptr, ptr %12, align 8, !tbaa !21
  %14 = load ptr, ptr %3, align 8, !tbaa !4
  %15 = getelementptr inbounds nuw %struct.ewah_bitmap, ptr %14, i32 0, i32 1
  %16 = load i64, ptr %15, align 8, !tbaa !20
  %17 = add i64 %16, 1
  store i64 %17, ptr %15, align 8, !tbaa !20
  %18 = getelementptr inbounds nuw i64, ptr %13, i64 %16
  store i64 %10, ptr %18, align 8, !tbaa !11
  ret void
}

; Function Attrs: inlinehint nounwind uwtable
define internal void @rlw_set_literal_words(ptr noundef %0, i64 noundef %1) #2 {
  %3 = alloca ptr, align 8
  %4 = alloca i64, align 8
  store ptr %0, ptr %3, align 8, !tbaa !19
  store i64 %1, ptr %4, align 8, !tbaa !11
  %5 = load ptr, ptr %3, align 8, !tbaa !19
  %6 = load i64, ptr %5, align 8, !tbaa !11
  %7 = or i64 %6, -8589934592
  store i64 %7, ptr %5, align 8, !tbaa !11
  %8 = load i64, ptr %4, align 8, !tbaa !11
  %9 = shl i64 %8, 33
  %10 = or i64 %9, 8589934591
  %11 = load ptr, ptr %3, align 8, !tbaa !19
  %12 = load i64, ptr %11, align 8, !tbaa !11
  %13 = and i64 %12, %10
  store i64 %13, ptr %11, align 8, !tbaa !11
  ret void
}

; Function Attrs: nounwind uwtable
define internal void @buffer_push_rlw(ptr noundef %0, i64 noundef %1) #0 {
  %3 = alloca ptr, align 8
  %4 = alloca i64, align 8
  store ptr %0, ptr %3, align 8, !tbaa !4
  store i64 %1, ptr %4, align 8, !tbaa !11
  %5 = load ptr, ptr %3, align 8, !tbaa !4
  %6 = load i64, ptr %4, align 8, !tbaa !11
  call void @buffer_push(ptr noundef %5, i64 noundef %6)
  %7 = load ptr, ptr %3, align 8, !tbaa !4
  %8 = getelementptr inbounds nuw %struct.ewah_bitmap, ptr %7, i32 0, i32 0
  %9 = load ptr, ptr %8, align 8, !tbaa !21
  %10 = load ptr, ptr %3, align 8, !tbaa !4
  %11 = getelementptr inbounds nuw %struct.ewah_bitmap, ptr %10, i32 0, i32 1
  %12 = load i64, ptr %11, align 8, !tbaa !20
  %13 = getelementptr inbounds nuw i64, ptr %9, i64 %12
  %14 = getelementptr inbounds i64, ptr %13, i64 -1
  %15 = load ptr, ptr %3, align 8, !tbaa !4
  %16 = getelementptr inbounds nuw %struct.ewah_bitmap, ptr %15, i32 0, i32 4
  store ptr %14, ptr %16, align 8, !tbaa !16
  ret void
}

; Function Attrs: inlinehint nounwind uwtable
define internal i64 @rlw_get_literal_words(ptr noundef %0) #2 {
  %2 = alloca ptr, align 8
  store ptr %0, ptr %2, align 8, !tbaa !19
  %3 = load ptr, ptr %2, align 8, !tbaa !19
  %4 = load i64, ptr %3, align 8, !tbaa !11
  %5 = lshr i64 %4, 33
  ret i64 %5
}

; Function Attrs: nounwind uwtable
define internal i64 @add_literal(ptr noundef %0, i64 noundef %1) #0 {
  %3 = alloca i64, align 8
  %4 = alloca ptr, align 8
  %5 = alloca i64, align 8
  %6 = alloca i64, align 8
  %7 = alloca i32, align 4
  store ptr %0, ptr %4, align 8, !tbaa !4
  store i64 %1, ptr %5, align 8, !tbaa !11
  call void @llvm.lifetime.start.p0(i64 8, ptr %6) #7
  %8 = load ptr, ptr %4, align 8, !tbaa !4
  %9 = getelementptr inbounds nuw %struct.ewah_bitmap, ptr %8, i32 0, i32 4
  %10 = load ptr, ptr %9, align 8, !tbaa !16
  %11 = call i64 @rlw_get_literal_words(ptr noundef %10)
  store i64 %11, ptr %6, align 8, !tbaa !11
  %12 = load i64, ptr %6, align 8, !tbaa !11
  %13 = icmp uge i64 %12, 2147483647
  br i1 %13, label %14, label %21

14:                                               ; preds = %2
  %15 = load ptr, ptr %4, align 8, !tbaa !4
  call void @buffer_push_rlw(ptr noundef %15, i64 noundef 0)
  %16 = load ptr, ptr %4, align 8, !tbaa !4
  %17 = getelementptr inbounds nuw %struct.ewah_bitmap, ptr %16, i32 0, i32 4
  %18 = load ptr, ptr %17, align 8, !tbaa !16
  call void @rlw_set_literal_words(ptr noundef %18, i64 noundef 1)
  %19 = load ptr, ptr %4, align 8, !tbaa !4
  %20 = load i64, ptr %5, align 8, !tbaa !11
  call void @buffer_push(ptr noundef %19, i64 noundef %20)
  store i64 2, ptr %3, align 8
  store i32 1, ptr %7, align 4
  br label %29

21:                                               ; preds = %2
  %22 = load ptr, ptr %4, align 8, !tbaa !4
  %23 = getelementptr inbounds nuw %struct.ewah_bitmap, ptr %22, i32 0, i32 4
  %24 = load ptr, ptr %23, align 8, !tbaa !16
  %25 = load i64, ptr %6, align 8, !tbaa !11
  %26 = add i64 %25, 1
  call void @rlw_set_literal_words(ptr noundef %24, i64 noundef %26)
  %27 = load ptr, ptr %4, align 8, !tbaa !4
  %28 = load i64, ptr %5, align 8, !tbaa !11
  call void @buffer_push(ptr noundef %27, i64 noundef %28)
  store i64 1, ptr %3, align 8
  store i32 1, ptr %7, align 4
  br label %29

29:                                               ; preds = %21, %14
  call void @llvm.lifetime.end.p0(i64 8, ptr %6) #7
  %30 = load i64, ptr %3, align 8
  ret i64 %30
}