; Function Attrs: nounwind uwtable
define internal fastcc range(i64 1, 3) i64 @add_literal(ptr noundef captures(none) %0, i64 noundef range(i64 1, -1) %1) unnamed_addr #0 {
  %3 = getelementptr inbounds nuw i8, ptr %0, i64 32
  %4 = load ptr, ptr %3, align 8, !tbaa !11
  %.val = load i64, ptr %4, align 8, !tbaa !12
  %5 = icmp ugt i64 %.val, -8589934593
  br i1 %5, label %6, label %51

6:                                                ; preds = %2
  %7 = getelementptr inbounds nuw i8, ptr %0, i64 8
  %8 = load i64, ptr %7, align 8, !tbaa !13
  %9 = add i64 %8, 1
  %10 = load ptr, ptr %0, align 8, !tbaa !14
  %11 = getelementptr inbounds nuw i8, ptr %0, i64 16
  %12 = load i64, ptr %11, align 8, !tbaa !15
  %13 = icmp ugt i64 %9, %12
  br i1 %13, label %14, label %buffer_push_rlw.exit

14:                                               ; preds = %6
  %15 = mul i64 %12, 3
  %16 = add i64 %15, 48
  %17 = lshr i64 %16, 1
  %..i.i.i = tail call i64 @llvm.umax.i64(i64 %17, i64 %9)
  store i64 %..i.i.i, ptr %11, align 8, !tbaa !15
  %18 = icmp ugt i64 %..i.i.i, 2305843009213693951
  br i1 %18, label %19, label %st_mult.exit.i.i.i

19:                                               ; preds = %14
  tail call void (ptr, ...) @die(ptr noundef nonnull @.str, i64 noundef 8, i64 noundef %..i.i.i) #11
  unreachable

st_mult.exit.i.i.i:                               ; preds = %14
  %20 = shl nuw i64 %..i.i.i, 3
  %21 = tail call ptr @xrealloc(ptr noundef %10, i64 noundef %20) #12
  store ptr %21, ptr %0, align 8, !tbaa !14
  %.pre.i.i = load i64, ptr %7, align 8, !tbaa !13
  %.pre4.i.i = add i64 %.pre.i.i, 1
  br label %buffer_push_rlw.exit

buffer_push_rlw.exit:                             ; preds = %6, %st_mult.exit.i.i.i
  %.pre-phi.i.i = phi i64 [ %9, %6 ], [ %.pre4.i.i, %st_mult.exit.i.i.i ]
  %22 = phi i64 [ %8, %6 ], [ %.pre.i.i, %st_mult.exit.i.i.i ]
  %23 = phi ptr [ %10, %6 ], [ %21, %st_mult.exit.i.i.i ]
  store i64 %.pre-phi.i.i, ptr %7, align 8, !tbaa !13
  %24 = getelementptr inbounds nuw i64, ptr %23, i64 %22
  store i64 0, ptr %24, align 8, !tbaa !12
  %25 = load i64, ptr %7, align 8, !tbaa !13
  %26 = getelementptr inbounds nuw i64, ptr %23, i64 %25
  %27 = getelementptr inbounds i8, ptr %26, i64 -8
  store ptr %27, ptr %3, align 8, !tbaa !11
  %28 = load i64, ptr %27, align 8, !tbaa !12
  %29 = and i64 %28, 8589934591
  %30 = or disjoint i64 %29, 8589934592
  store i64 %30, ptr %27, align 8, !tbaa !12
  %31 = load i64, ptr %7, align 8, !tbaa !13
  %32 = add i64 %31, 1
  %33 = load i64, ptr %11, align 8, !tbaa !15
  %34 = icmp ugt i64 %32, %33
  br i1 %34, label %35, label %buffer_push.exit

35:                                               ; preds = %buffer_push_rlw.exit
  %36 = mul i64 %33, 3
  %37 = add i64 %36, 48
  %38 = lshr i64 %37, 1
  %..i.i = tail call i64 @llvm.umax.i64(i64 %38, i64 %32)
  store i64 %..i.i, ptr %11, align 8, !tbaa !15
  %39 = icmp ugt i64 %..i.i, 2305843009213693951
  br i1 %39, label %40, label %st_mult.exit.i.i

40:                                               ; preds = %35
  tail call void (ptr, ...) @die(ptr noundef nonnull @.str, i64 noundef 8, i64 noundef %..i.i) #11
  unreachable

st_mult.exit.i.i:                                 ; preds = %35
  %41 = shl nuw i64 %..i.i, 3
  %42 = tail call ptr @xrealloc(ptr noundef nonnull %23, i64 noundef %41) #12
  store ptr %42, ptr %0, align 8, !tbaa !14
  %.pre.i = load i64, ptr %7, align 8, !tbaa !13
  %.pre4.i = add i64 %.pre.i, 1
  br label %buffer_push.exit

buffer_push.exit:                                 ; preds = %buffer_push_rlw.exit, %st_mult.exit.i.i
  %.pre-phi.i = phi i64 [ %32, %buffer_push_rlw.exit ], [ %.pre4.i, %st_mult.exit.i.i ]
  %43 = phi i64 [ %31, %buffer_push_rlw.exit ], [ %.pre.i, %st_mult.exit.i.i ]
  %44 = phi ptr [ %23, %buffer_push_rlw.exit ], [ %42, %st_mult.exit.i.i ]
  %45 = ptrtoint ptr %27 to i64
  %46 = ptrtoint ptr %23 to i64
  %47 = sub i64 %45, %46
  %48 = lshr i64 %47, 3
  %49 = getelementptr inbounds nuw i64, ptr %44, i64 %48
  store ptr %49, ptr %3, align 8, !tbaa !11
  store i64 %.pre-phi.i, ptr %7, align 8, !tbaa !13
  %50 = getelementptr inbounds nuw i64, ptr %44, i64 %43
  store i64 %1, ptr %50, align 8, !tbaa !12
  br label %79

51:                                               ; preds = %2
  %52 = or i64 %.val, -8589934592
  %53 = or i64 %.val, 8589934591
  %54 = add nuw i64 %53, 8589934592
  %55 = and i64 %54, %52
  store i64 %55, ptr %4, align 8, !tbaa !12
  %56 = getelementptr inbounds nuw i8, ptr %0, i64 8
  %57 = load i64, ptr %56, align 8, !tbaa !13
  %58 = add i64 %57, 1
  %59 = load ptr, ptr %0, align 8, !tbaa !14
  %60 = getelementptr inbounds nuw i8, ptr %0, i64 16
  %61 = load i64, ptr %60, align 8, !tbaa !15
  %62 = icmp ugt i64 %58, %61
  br i1 %62, label %63, label %buffer_push.exit16

63:                                               ; preds = %51
  %64 = mul i64 %61, 3
  %65 = add i64 %64, 48
  %66 = lshr i64 %65, 1
  %..i.i12 = tail call i64 @llvm.umax.i64(i64 %66, i64 %58)
  store i64 %..i.i12, ptr %60, align 8, !tbaa !15
  %67 = icmp ugt i64 %..i.i12, 2305843009213693951
  br i1 %67, label %68, label %st_mult.exit.i.i13

68:                                               ; preds = %63
  tail call void (ptr, ...) @die(ptr noundef nonnull @.str, i64 noundef 8, i64 noundef %..i.i12) #11
  unreachable

st_mult.exit.i.i13:                               ; preds = %63
  %69 = shl nuw i64 %..i.i12, 3
  %70 = tail call ptr @xrealloc(ptr noundef %59, i64 noundef %69) #12
  store ptr %70, ptr %0, align 8, !tbaa !14
  %.pre.i14 = load i64, ptr %56, align 8, !tbaa !13
  %.pre4.i15 = add i64 %.pre.i14, 1
  br label %buffer_push.exit16

buffer_push.exit16:                               ; preds = %51, %st_mult.exit.i.i13
  %.pre-phi.i11 = phi i64 [ %58, %51 ], [ %.pre4.i15, %st_mult.exit.i.i13 ]
  %71 = phi i64 [ %57, %51 ], [ %.pre.i14, %st_mult.exit.i.i13 ]
  %72 = phi ptr [ %59, %51 ], [ %70, %st_mult.exit.i.i13 ]
  %73 = ptrtoint ptr %4 to i64
  %74 = ptrtoint ptr %59 to i64
  %75 = sub i64 %73, %74
  %76 = lshr i64 %75, 3
  %77 = getelementptr inbounds nuw i64, ptr %72, i64 %76
  store ptr %77, ptr %3, align 8, !tbaa !11
  store i64 %.pre-phi.i11, ptr %56, align 8, !tbaa !13
  %78 = getelementptr inbounds nuw i64, ptr %72, i64 %71
  store i64 %1, ptr %78, align 8, !tbaa !12
  br label %79

79:                                               ; preds = %buffer_push.exit16, %buffer_push.exit
  %.0 = phi i64 [ 2, %buffer_push.exit ], [ 1, %buffer_push.exit16 ]
  ret i64 %.0
}